target datalayout = "e-m:e-p270:32:32-p271:32:32-p272:64:64-i64:64-i128:128-f80:128-n8:16:32:64-S128"
target triple = "x86_64-pc-linux-gnu"

; Function Attrs: nounwind uwtable
define internal ptr @get_loader_store(ptr noundef %0) #0 {
  %2 = alloca ptr, align 8
  store ptr %0, ptr %2, align 8, !tbaa !19
  %3 = load ptr, ptr %2, align 8, !tbaa !19
  %4 = call ptr @ossl_lib_ctx_get_data(ptr noundef %3, i32 noundef 15)
  ret ptr %4
}

; Function Attrs: nounwind uwtable
define i32 @ossl_store_loader_store_cache_flush(ptr noundef %0) #0 {
  %2 = alloca i32, align 4
  %3 = alloca ptr, align 8
  %4 = alloca ptr, align 8
  %5 = alloca i32, align 4
  store ptr %0, ptr %3, align 8, !tbaa !19
  call void @llvm.lifetime.start.p0(i64 8, ptr %4) #6
  %6 = load ptr, ptr %3, align 8, !tbaa !19
  %7 = call ptr @get_loader_store(ptr noundef %6)
  store ptr %7, ptr %4, align 8, !tbaa !28
  %8 = load ptr, ptr %4, align 8, !tbaa !28
  %9 = icmp ne ptr %8, null
  br i1 %9, label %10, label %13

10:                                               ; preds = %1
  %11 = load ptr, ptr %4, align 8, !tbaa !28
  %12 = call i32 @ossl_method_store_cache_flush_all(ptr noundef %11)
  store i32 %12, ptr %2, align 4
  store i32 1, ptr %5, align 4
  br label %14

13:                                               ; preds = %1
  store i32 1, ptr %2, align 4
  store i32 1, ptr %5, align 4
  br label %14

14:                                               ; preds = %13, %10
  call void @llvm.lifetime.end.p0(i64 8, ptr %4) #6
  %15 = load i32, ptr %2, align 4
  ret i32 %15
}